(dp0
S'gown'
p1
(lp2
S'101003'
p3
asS'gu'
p4
(lp5
S'101001'
p6
asS'nurseri'
p7
(lp8
S'101002'
p9
asS'gr'
p10
(lp11
g6
ag9
ag3
asS"bow'd"
p12
(lp13
g9
asS'obst'
p14
(lp15
g3
asS'steri'
p16
(lp17
g3
asS'foul'
p18
(lp19
g3
asS'defenc'
p20
(lp21
g6
asS'gg'
p22
(lp23
g9
ag3
asS'roy'
p24
(lp25
g9
asS'lli'
p26
(lp27
g6
asS'go'
p28
(lp29
g6
ag3
asS'follow'
p30
(lp31
g6
ag3
asS'rou'
p32
(lp33
g9
ag3
asS'scr'
p34
(lp35
g6
asS'whose'
p36
(lp37
g6
ag9
ag3
asS'educ'
p38
(lp39
g6
asS'ver'
p40
(lp41
g6
ag3
asS'consu'
p42
(lp43
g6
asS'ty'
p44
(lp45
g6
ag9
ag3
asS'tw'
p46
(lp47
g3
asS'tt'
p48
(lp49
g6
asS'tr'
p50
(lp51
g6
ag9
asS'ts'
p52
(lp53
g6
ag9
ag3
asS'send'
p54
(lp55
g6
asS'ved'
p56
(lp57
g6
ag9
asS'th'
p58
(lp59
g6
ag9
ag3
asS'under'
p60
(lp61
g6
asS'ven'
p62
(lp63
g6
ag3
asS'lord'
p64
(lp65
g6
ag9
ag3
asS'rrow'
p66
(lp67
g6
ag3
asS'persecut'
p68
(lp69
g6
asS'worth'
p70
(lp71
g6
asS'tusc'
p72
(lp73
g9
asS'queen'
p74
(lp75
g6
ag3
asS'everi'
p76
(lp77
g6
ag3
asS'rned'
p78
(lp79
g3
asS'worsh'
p80
(lp81
g3
asS'ttend'
p82
(lp83
g6
ag3
asS"'"
p84
(lp85
g6
ag9
ag3
asS'uncl'
p86
(lp87
g6
asS'prescr'
p88
(lp89
g3
asS'vere'
p90
(lp91
g6
ag3
asS'rm'
p92
(lp93
g9
asS'veri'
p94
(lp95
g6
ag3
asS'month'
p96
(lp97
g9
asS'wore'
p98
(lp99
g9
asS'tri'
p100
(lp101
g9
ag3
asS"rm'd"
p102
(lp103
g9
asS'gue'
p104
(lp105
g6
asS'level'
p106
(lp107
g3
asS'commonw'
p108
(lp109
g6
asS"we'ld"
p110
(lp111
g3
asS'mb'
p112
(lp113
g6
ag9
asS'eve'
p114
(lp115
g6
ag3
asS'p'
p116
(lp117
g6
ag9
ag3
asS'red'
p118
(lp119
g6
asS"eve't"
p120
(lp121
g3
asS'enem'
p122
(lp123
g3
asS"t'"
p124
(lp125
g6
ag9
ag3
asS'der'
p126
(lp127
g6
asS'ten'
p128
(lp129
g6
ag3
asS'nkful'
p130
(lp131
g6
asS'ze'
p132
(lp133
g6
asS'ted'
p134
(lp135
g6
asS'crop'
p136
(lp137
g3
asS'horn'
p138
(lp139
g3
asS'nger'
p140
(lp141
g9
ag3
asS'second'
p142
(lp143
g6
ag9
asS'dev'
p144
(lp145
g3
asS'gn'
p146
(lp147
g6
ag3
asS'ckness'
p148
(lp149
g9
asS'ter'
p150
(lp151
g6
ag3
asS'porr'
p152
(lp153
g6
asS'lmost'
p154
(lp155
g6
asS'even'
p156
(lp157
g3
asS'nvent'
p158
(lp159
g3
asS'const'
p160
(lp161
g9
asS'ncholi'
p162
(lp163
g9
asS"ne'er"
p164
(lp165
g6
ag3
asS'clock'
p166
(lp167
g9
asS'sun'
p168
(lp169
g3
asS'suspect'
p170
(lp171
g3
asS'pper'
p172
(lp173
g3
asS'sweetli'
p174
(lp175
g3
asS'goer'
p176
(lp177
g9
asS'new'
p178
(lp179
g6
ag9
asS'gh'
p180
(lp181
g6
ag3
asS'ever'
p182
(lp183
g6
ag3
asS'dem'
p184
(lp185
g3
asS'full'
p186
(lp187
g6
ag3
asS'lled'
p188
(lp189
g6
asS'gener'
p190
(lp191
g6
ag3
asS'never'
p192
(lp193
g6
ag3
asS'brooch'
p194
(lp195
g6
asS'french'
p196
(lp197
g6
asS'bodi'
p198
(lp199
g6
ag3
asS'let'
p200
(lp201
g6
ag3
asS'lev'
p202
(lp203
g9
asS'excess'
p204
(lp205
g6
asS'cult'
p206
(lp207
g3
asS're'
p208
(lp209
g6
ag9
ag3
asS'rece'
p210
(lp211
g9
ag3
asS'ppen'
p212
(lp213
g3
asS'cuckoo'
p214
(lp215
g3
asS'unsu'
p216
(lp217
g6
asS'k'
p218
(lp219
g6
ag9
ag3
asS'observ'
p220
(lp221
g9
ag3
asS'cert'
p222
(lp223
g9
asS'goss'
p224
(lp225
g6
asS'cuckold'
p226
(lp227
g3
asS'bro'
p228
(lp229
g3
asS'put'
p230
(lp231
g3
asS'ndeed'
p232
(lp233
g6
ag3
asS'bre'
p234
(lp235
g6
ag9
asS'sch'
p236
(lp237
g3
asS'rness'
p238
(lp239
g3
asS'welco'
p240
(lp241
g9
asS"m'"
p242
(lp243
g6
ag3
asS'eye'
p244
(lp245
g6
ag3
asS'spoke'
p246
(lp247
g6
asS'would'
p248
(lp249
g6
ag9
ag3
asS'commun'
p250
(lp251
g3
asS'gloss'
p252
(lp253
g6
asS'two'
p254
(lp255
g3
asS'mort'
p256
(lp257
g6
asS'cho'
p258
(lp259
g3
asS'few'
p260
(lp261
g6
asS'chr'
p262
(lp263
g6
asS'feu'
p264
(lp265
g6
asS'lotteri'
p266
(lp267
g3
asS'ult'
p268
(lp269
g3
asS'ccuse'
p270
(lp271
g6
asS'teli'
p272
(lp273
g6
ag3
asS'scope'
p274
(lp275
g6
asS'tell'
p276
(lp277
g3
asS'more'
p278
(lp279
g6
ag3
asS"y'd"
p280
(lp281
g9
asS'fellow'
p282
(lp283
g3
asS"jesty'"
p284
(lp285
g6
ag9
asS'hurt'
p286
(lp287
g3
asS'presumptu'
p288
(lp289
g3
asS'holi'
p290
(lp291
g6
ag3
asS'sens'
p292
(lp293
g6
ag9
ag3
asS'sdoubt'
p294
(lp295
g3
asS'jesti'
p296
(lp297
g9
asS'hold'
p298
(lp299
g6
asS'vel'
p300
(lp301
g6
asS'must'
p302
(lp303
g6
ag3
asS"fe'"
p304
(lp305
g6
ag3
asS'te'
p306
(lp307
g6
ag9
ag3
asS'word'
p308
(lp309
g9
ag3
asS'rselv'
p310
(lp311
g6
asS'f'
p312
(lp313
g6
ag9
ag3
asS'mo'
p314
(lp315
g6
ag3
asS'work'
p316
(lp317
g6
ag3
asS'judg'
p318
(lp319
g9
asS'worn'
p320
(lp321
g9
asS'ere'
p322
(lp323
g9
ag3
asS'wors'
p324
(lp325
g6
asS'del'
p326
(lp327
g6
ag3
asS'rself'
p328
(lp329
g3
asS'den'
p330
(lp331
g6
ag9
ag3
asS'v'
p332
(lp333
g6
ag9
ag3
asS'lved'
p334
(lp335
g9
asS'deb'
p336
(lp337
g9
asS'underm'
p338
(lp339
g6
asS'od'
p340
(lp341
g3
asS'serpent'
p342
(lp343
g3
asS'ger'
p344
(lp345
g6
asS'process'
p346
(lp347
g6
asS'requ'
p348
(lp349
g3
asS'commod'
p350
(lp351
g6
asS'excl'
p352
(lp353
g3
asS'honey'
p354
(lp355
g9
asS'nstruct'
p356
(lp357
g6
asS'rpness'
p358
(lp359
g9
asS'spo'
p360
(lp361
g6
asS'honest'
p362
(lp363
g3
asS'spe'
p364
(lp365
g6
ag9
ag3
asS"by't"
p366
(lp367
g6
asS'enc'
p368
(lp369
g6
ag3
asS'end'
p370
(lp371
g6
ag9
ag3
asS'ene'
p372
(lp373
g6
asS'ttempt'
p374
(lp375
g6
ag3
asS'fend'
p376
(lp377
g3
asS'ersh'
p378
(lp379
g9
asS'how'
p380
(lp381
g6
ag9
ag3
asS'ent'
p382
(lp383
g3
asS'contempt'
p384
(lp385
g9
asS'nute'
p386
(lp387
g9
asS'espec'
p388
(lp389
g6
asS'feti'
p390
(lp391
g6
asS'fr'
p392
(lp393
g6
ag9
ag3
asS'express'
p394
(lp395
g3
asS'ft'
p396
(lp397
g6
asS'w'
p398
(lp399
g6
ag9
ag3
asS"que'd"
p400
(lp401
g6
asS'fy'
p402
(lp403
g6
ag3
asS'egon'
p404
(lp405
g3
asS'lumn'
p406
(lp407
g3
asS'wrong'
p408
(lp409
g6
asS'fe'
p410
(lp411
g6
ag3
asS'such'
p412
(lp413
g6
ag9
ag3
asS'fl'
p414
(lp415
g9
ag3
asS'grow'
p416
(lp417
g9
asS'demonstr'
p418
(lp419
g9
asS'bund'
p420
(lp421
g6
asS'ght'
p422
(lp423
g6
ag9
ag3
asS'stress'
p424
(lp425
g6
ag3
asS'ghw'
p426
(lp427
g6
asS'rewel'
p428
(lp429
g6
asS'move'
p430
(lp431
g9
asS'ss'
p432
(lp433
g6
ag3
asS'sp'
p434
(lp435
g6
ag9
ag3
asS'oner'
p436
(lp437
g3
asS'su'
p438
(lp439
g6
ag3
asS'st'
p440
(lp441
g6
ag9
ag3
asS'sk'
p442
(lp443
g6
ag3
asS'hon'
p444
(lp445
g9
ag3
asS'sh'
p446
(lp447
g6
ag9
ag3
asS"'tw"
p448
(lp449
g6
asS'sc'
p450
(lp451
g9
asS'sclose'
p452
(lp453
g3
asS"sh'd"
p454
(lp455
g9
asS'se'
p456
(lp457
g6
ag9
ag3
asS'sd'
p458
(lp459
g9
asS"ce'"
p460
(lp461
g3
asS'cute'
p462
(lp463
g6
asS'wfulli'
p464
(lp465
g3
asS'ws'
p466
(lp467
g3
asS'dece'
p468
(lp469
g6
asS'counsellor'
p470
(lp471
g6
asS'dy'
p472
(lp473
g6
ag3
asS'lful'
p474
(lp475
g6
asS'coll'
p476
(lp477
g6
asS'own'
p478
(lp479
g6
ag9
ag3
asS'cold'
p480
(lp481
g6
asS'suffer'
p482
(lp483
g3
asS'perfect'
p484
(lp485
g6
asS'ld'
p486
(lp487
g6
ag9
ag3
asS'le'
p488
(lp489
g6
ag9
ag3
asS'lo'
p490
(lp491
g6
asS'll'
p492
(lp493
g6
ag9
ag3
asS'nyth'
p494
(lp495
g6
asS'lk'
p496
(lp497
g9
ag3
asS'gentl'
p498
(lp499
g9
asS'lt'
p500
(lp501
g6
ag3
asS'ls'
p502
(lp503
g6
asS'mself'
p504
(lp505
g6
asS'nclu'
p506
(lp507
g3
asS"tter'd"
p508
(lp509
g9
asS'stendom'
p510
(lp511
g6
asS'cred'
p512
(lp513
g6
ag9
ag3
asS'round'
p514
(lp515
g3
asS'ly'
p516
(lp517
g6
ag3
asS'fool'
p518
(lp519
g6
asS'procl'
p520
(lp521
g3
asS'return'
p522
(lp523
g6
ag9
asS'sentenc'
p524
(lp525
g3
asS'ye'
p526
(lp527
g6
ag3
asS'school'
p528
(lp529
g3
asS'ckli'
p530
(lp531
g9
asS'conver'
p532
(lp533
g3
asS'ys'
p534
(lp535
g6
ag9
ag3
asS'necess'
p536
(lp537
g6
asS"l'"
p538
(lp539
g3
asS'bove'
p540
(lp541
g6
asS"tch'd"
p542
(lp543
g3
asS'l'
p544
(lp545
g6
ag9
ag3
asS'bless'
p546
(lp547
g6
ag3
asS"w't"
p548
(lp549
g9
asS'truth'
p550
(lp551
g3
asS'blest'
p552
(lp553
g6
asS'found'
p554
(lp555
g6
ag3
asS'bone'
p556
(lp557
g6
asS'bond'
p558
(lp559
g3
asS'em'
p560
(lp561
g9
asS'el'
p562
(lp563
g9
asS'en'
p564
(lp565
g6
ag3
asS'ek'
p566
(lp567
g6
ag3
asS'concord'
p568
(lp569
g6
asS'ed'
p570
(lp571
g6
ag9
ag3
asS'ef'
p572
(lp573
g6
asS'uch'
p574
(lp575
g3
asS'drudg'
p576
(lp577
g3
asS'ev'
p578
(lp579
g6
asS'ep'
p580
(lp581
g9
asS'es'
p582
(lp583
g6
ag9
ag3
asS'out'
p584
(lp585
g6
ag9
ag3
asS'rt'
p586
(lp587
g6
ag9
ag3
asS'shown'
p588
(lp589
g3
asS'nswer'
p590
(lp591
g6
ag9
asS'rr'
p592
(lp593
g6
ag3
asS'rs'
p594
(lp595
g6
ag9
ag3
asS'rer'
p596
(lp597
g6
ag9
asS'underst'
p598
(lp599
g6
asS'rep'
p600
(lp601
g9
asS'stretc'
p602
(lp603
g6
asS'ry'
p604
(lp605
g6
ag3
asS'rd'
p606
(lp607
g6
ag9
ag3
asS'mposs'
p608
(lp609
g6
asS'steli'
p610
(lp611
g3
asS'rg'
p612
(lp613
g6
ag3
asS'xt'
p614
(lp615
g3
asS'rel'
p616
(lp617
g6
ag3
asS'rc'
p618
(lp619
g6
asS'rl'
p620
(lp621
g6
asS'got'
p622
(lp623
g6
asS'rn'
p624
(lp625
g6
asS'stul'
p626
(lp627
g6
asS'shut'
p628
(lp629
g6
asS'rli'
p630
(lp631
g6
ag3
asS'free'
p632
(lp633
g6
asS'ness'
p634
(lp635
g6
ag9
ag3
asS'nti'
p636
(lp637
g9
asS'ventur'
p638
(lp639
g3
asS'pled'
p640
(lp641
g9
asS'que'
p642
(lp643
g6
ag3
asS'thrust'
p644
(lp645
g6
asS'pur'
p646
(lp647
g3
asS'speedi'
p648
(lp649
g9
asS'g'
p650
(lp651
g6
ag9
ag3
asS'could'
p652
(lp653
g6
ag3
asS'success'
p654
(lp655
g3
asS'keep'
p656
(lp657
g6
ag3
asS"r'"
p658
(lp659
g6
ag9
ag3
asS"rtue'"
p660
(lp661
g6
asS'ture'
p662
(lp663
g6
ag9
ag3
asS'lth'
p664
(lp665
g6
asS"re'"
p666
(lp667
g6
ag3
asS'blood'
p668
(lp669
g6
ag3
asS'feed'
p670
(lp671
g6
asS"'er"
p672
(lp673
g3
asS'gnti'
p674
(lp675
g3
asS'blown'
p676
(lp677
g6
asS'onc'
p678
(lp679
g6
asS"rs'"
p680
(lp681
g3
asS"render'd"
p682
(lp683
g3
asS'one'
p684
(lp685
g6
ag3
asS'done'
p686
(lp687
g3
asS"edfull'st"
p688
(lp689
g3
asS'hood'
p690
(lp691
g6
ag3
asS'rri'
p692
(lp693
g6
ag3
asS'breed'
p694
(lp695
g6
ag3
asS'equ'
p696
(lp697
g9
asS'fought'
p698
(lp699
g9
asS'lov'
p700
(lp701
g3
asS'rci'
p702
(lp703
g3
asS'rdon'
p704
(lp705
g3
asS'murder'
p706
(lp707
g6
asS'sl'
p708
(lp709
g3
asS'hum'
p710
(lp711
g6
ag9
ag3
asS'copi'
p712
(lp713
g9
asS'nct'
p714
(lp715
g6
ag3
asS'clew'
p716
(lp717
g3
asS'nci'
p718
(lp719
g6
asS'ssenger'
p720
(lp721
g3
asS'rst'
p722
(lp723
g6
ag9
ag3
asS'moder'
p724
(lp725
g6
asS'ttle'
p726
(lp727
g6
asS'serv'
p728
(lp729
g6
ag9
ag3
asS'ste'
p730
(lp731
g9
asS'b'
p732
(lp733
g6
ag9
ag3
asS"o'er"
p734
(lp735
g6
asS'project'
p736
(lp737
g6
asS'r'
p738
(lp739
g6
ag9
ag3
asS'str'
p740
(lp741
g6
ag3
asS'grec'
p742
(lp743
g3
asS'joy'
p744
(lp745
g3
asS'folli'
p746
(lp747
g6
ag3
asS'surpr'
p748
(lp749
g3
asS'fted'
p750
(lp751
g9
asS'corrupt'
p752
(lp753
g3
asS'predom'
p754
(lp755
g6
asS'fendress'
p756
(lp757
g6
asS'rent'
p758
(lp759
g3
asS'exper'
p760
(lp761
g3
asS'need'
p762
(lp763
g6
ag3
asS'seen'
p764
(lp765
g3
asS'seem'
p766
(lp767
g9
asS'seek'
p768
(lp769
g3
asS'surpl'
p770
(lp771
g3
asS'morrow'
p772
(lp773
g3
asS'rged'
p774
(lp775
g3
asS'mongst'
p776
(lp777
g3
asS'self'
p778
(lp779
g6
ag9
asS'selv'
p780
(lp781
g6
ag3
asS'concern'
p782
(lp783
g3
asS'endsh'
p784
(lp785
g9
asS'sure'
p786
(lp787
g6
ag9
ag3
asS'quoth'
p788
(lp789
g9
ag3
asS'though'
p790
(lp791
g6
ag3
asS"x'd"
p792
(lp793
g6
asS'who'
p794
(lp795
g6
ag9
asS'whi'
p796
(lp797
g6
ag3
asS'compl'
p798
(lp799
g3
asS'most'
p800
(lp801
g6
ag9
ag3
asS'knee'
p802
(lp803
g3
asS'rthr'
p804
(lp805
g6
asS'tyr'
p806
(lp807
g6
asS"embowell'd"
p808
(lp809
g3
asS'dol'
p810
(lp811
g6
asS'room'
p812
(lp813
g9
asS'ckl'
p814
(lp815
g6
asS'proud'
p816
(lp817
g6
ag9
asS'm'
p818
(lp819
g6
ag9
ag3
asS'kn'
p820
(lp821
g3
asS'doe'
p822
(lp823
g3
asS'ergo'
p824
(lp825
g3
asS'ckw'
p826
(lp827
g6
ag9
asS'exp'
p828
(lp829
g9
asS'left'
p830
(lp831
g3
asS'lest'
p832
(lp833
g6
asS'ugh'
p834
(lp835
g6
ag3
asS'show'
p836
(lp837
g6
ag3
asS"d'"
p838
(lp839
g6
asS'fond'
p840
(lp841
g6
ag3
asS'troy'
p842
(lp843
g3
asS'ner'
p844
(lp845
g6
asS'rtr'
p846
(lp847
g6
ag9
asS'trou'
p848
(lp849
g6
asS'nge'
p850
(lp851
g6
asS'onli'
p852
(lp853
g6
ag3
asS'slow'
p854
(lp855
g6
ag3
asS'pretti'
p856
(lp857
g6
asS'florent'
p858
(lp859
g9
asS'should'
p860
(lp861
g6
ag3
asS'ngu'
p862
(lp863
g6
ag3
asS'suppos'
p864
(lp865
g6
ag3
asS'cked'
p866
(lp867
g3
asS'florenc'
p868
(lp869
g9
asS'over'
p870
(lp871
g3
asS'hope'
p872
(lp873
g6
ag3
asS'leli'
p874
(lp875
g6
asS'do'
p876
(lp877
g6
ag9
ag3
asS"rt'"
p878
(lp879
g6
asS'dm'
p880
(lp881
g6
asS'get'
p882
(lp883
g6
ag3
asS'de'
p884
(lp885
g6
ag9
ag3
asS"s't"
p886
(lp887
g9
ag3
asS'ged'
p888
(lp889
g6
ag3
asS'dv'
p890
(lp891
g6
ag3
asS'repe'
p892
(lp893
g3
asS'dopt'
p894
(lp895
g6
ag3
asS'dr'
p896
(lp897
g6
ag3
asS'ds'
p898
(lp899
g3
asS'truli'
p900
(lp901
g3
asS'sdom'
p902
(lp903
g6
ag9
asS"ng'"
p904
(lp905
g6
asS'qu'
p906
(lp907
g6
ag9
ag3
asS'strove'
p908
(lp909
g6
asS'h'
p910
(lp911
g6
ag9
ag3
asS'dore'
p912
(lp913
g3
asS'modesti'
p914
(lp915
g3
asS'llon'
p916
(lp917
g9
ag3
asS'emp'
p918
(lp919
g6
asS'llow'
p920
(lp921
g3
asS'cre'
p922
(lp923
g9
ag3
asS'x'
p924
(lp925
g6
ag9
asS"'re"
p926
(lp927
g3
asS'runn'
p928
(lp929
g6
asS'set'
p930
(lp931
g6
ag3
asS'ser'
p932
(lp933
g6
asS'honestli'
p934
(lp935
g3
asS"mpress'd"
p936
(lp937
g3
asS'see'
p938
(lp939
g6
ag9
ag3
asS'sed'
p940
(lp941
g3
asS'honesti'
p942
(lp943
g6
ag3
asS'tender'
p944
(lp945
g3
asS'reserv'
p946
(lp947
g3
asS'nue'
p948
(lp949
g9
asS'subject'
p950
(lp951
g6
asS'snuff'
p952
(lp953
g9
asS'error'
p954
(lp955
g3
asS'dle'
p956
(lp957
g6
asS'leg'
p958
(lp959
g3
asS'wom'
p960
(lp961
g3
asS'scord'
p962
(lp963
g6
asS'rbon'
p964
(lp965
g6
ag3
asS'wn'
p966
(lp967
g3
asS'scorn'
p968
(lp969
g9
asS"howe'"
p970
(lp971
g3
asS'ken'
p972
(lp973
g3
asS'we'
p974
(lp975
g6
ag9
ag3
asS'kel'
p976
(lp977
g3
asS'ddle'
p978
(lp979
g3
asS'extend'
p980
(lp981
g3
asS'gentri'
p982
(lp983
g9
asS"stemper'd"
p984
(lp985
g3
asS'comp'
p986
(lp987
g6
asS'tur'
p988
(lp989
g6
asS'ked'
p990
(lp991
g9
asS'wk'
p992
(lp993
g6
asS'pluck'
p994
(lp995
g6
ag3
asS'poorer'
p996
(lp997
g6
asS'jo'
p998
(lp999
g6
asS'comm'
p1000
(lp1001
g6
ag3
asS'len'
p1002
(lp1003
g6
ag3
asS'key'
p1004
(lp1005
g6
asS"'ld"
p1006
(lp1007
g3
asS'wh'
p1008
(lp1009
g6
ag9
ag3
asS'both'
p1010
(lp1011
g9
ag3
asS'c'
p1012
(lp1013
g6
ag9
ag3
asS'uns'
p1014
(lp1015
g6
asS'cou'
p1016
(lp1017
g9
asS'cow'
p1018
(lp1019
g6
asS'thou'
p1020
(lp1021
g6
ag9
ag3
asS'wed'
p1022
(lp1023
g6
asS'sted'
p1024
(lp1025
g9
asS's'
p1026
(lp1027
g6
ag9
ag3
asS'succeed'
p1028
(lp1029
g6
asS'und'
p1030
(lp1031
g9
asS'uc'
p1032
(lp1033
g3
asS'tle'
p1034
(lp1035
g3
asS'cle'
p1036
(lp1037
g3
asS'freeli'
p1038
(lp1039
g9
asS'unk'
p1040
(lp1041
g3
asS'com'
p1042
(lp1043
g6
ag3
asS'col'
p1044
(lp1045
g3
asS'ck'
p1046
(lp1047
g6
ag9
ag3
asS'ch'
p1048
(lp1049
g6
ag9
ag3
asS'co'
p1050
(lp1051
g6
ag9
ag3
asS'unfold'
p1052
(lp1053
g6
asS"e'er"
p1054
(lp1055
g3
asS'sweet'
p1056
(lp1057
g6
asS'ce'
p1058
(lp1059
g6
ag9
ag3
asS'duti'
p1060
(lp1061
g9
ag3
asS'vend'
p1062
(lp1063
g6
asS'cy'
p1064
(lp1065
g6
ag3
asS'nent'
p1066
(lp1067
g9
asS'trust'
p1068
(lp1069
g6
asS'rescu'
p1070
(lp1071
g3
asS'ct'
p1072
(lp1073
g6
ag9
asS'pr'
p1074
(lp1075
g6
ag9
ag3
asS'ps'
p1076
(lp1077
g6
asS'strong'
p1078
(lp1079
g3
asS'pt'
p1080
(lp1081
g6
ag3
asS'lw'
p1082
(lp1083
g9
asS'ntent'
p1084
(lp1085
g3
asS'doctr'
p1086
(lp1087
g3
asS'overlook'
p1088
(lp1089
g6
asS'ngli'
p1090
(lp1091
g6
ag3
asS'compos'
p1092
(lp1093
g9
asS'blower'
p1094
(lp1095
g6
asS'whom'
p1096
(lp1097
g6
asS'rtuou'
p1098
(lp1099
g6
ag3
asS'much'
p1100
(lp1101
g6
ag9
ag3
asS'pe'
p1102
(lp1103
g6
asS'ph'
p1104
(lp1105
g9
asS'pl'
p1106
(lp1107
g6
ag9
asS'oth'
p1108
(lp1109
g6
ag3
asS"follow'd"
p1110
(lp1111
g9
asS'lp'
p1112
(lp1113
g3
asS'mong'
p1114
(lp1115
g3
asS'wet'
p1116
(lp1117
g3
asS"ch'd"
p1118
(lp1119
g3
asS'goddess'
p1120
(lp1121
g6
ag3
asS'retrogr'
p1122
(lp1123
g6
asS'fest'
p1124
(lp1125
g3
asS'mpleness'
p1126
(lp1127
g6
asS'evermor'
p1128
(lp1129
g6
asS'doth'
p1130
(lp1131
g6
ag3
asS'seed'
p1132
(lp1133
g3
asS'bout'
p1134
(lp1135
g3
asS'those'
p1136
(lp1137
g6
ag3
asS'tself'
p1138
(lp1139
g6
ag9
ag3
asS"n'd"
p1140
(lp1141
g6
asS'fur'
p1142
(lp1143
g3
asS'look'
p1144
(lp1145
g6
ag9
ag3
asS'superflu'
p1146
(lp1147
g6
asS'mount'
p1148
(lp1149
g6
asS'n'
p1150
(lp1151
g6
ag9
ag3
asS"n't"
p1152
(lp1153
g6
ag3
asS'explo'
p1154
(lp1155
g9
asS"p'"
p1156
(lp1157
g3
asS'ngue'
p1158
(lp1159
g9
ag3
asS'report'
p1160
(lp1161
g9
asS'eur'
p1162
(lp1163
g6
asS'loos'
p1164
(lp1165
g6
asS'yst'
p1166
(lp1167
g9
asS'vest'
p1168
(lp1169
g9
asS'cont'
p1170
(lp1171
g9
asS've'
p1172
(lp1173
g6
ag9
ag3
asS'brow'
p1174
(lp1175
g6
asS'tress'
p1176
(lp1177
g6
asS'vow'
p1178
(lp1179
g3
asS'jest'
p1180
(lp1181
g9
asS'sever'
p1182
(lp1183
g9
ag3
asS'wound'
p1184
(lp1185
g3
asS'dest'
p1186
(lp1187
g3
asS'speech'
p1188
(lp1189
g6
ag9
asS"th'"
p1190
(lp1191
g3
asS'ssue'
p1192
(lp1193
g3
asS'phi'
p1194
(lp1195
g6
ag9
ag3
asS'dge'
p1196
(lp1197
g6
asS'flesh'
p1198
(lp1199
g3
asS'thout'
p1200
(lp1201
g3
asS'upon'
p1202
(lp1203
g6
ag3
asS'effect'
p1204
(lp1205
g6
ag3
asS'publ'
p1206
(lp1207
g3
asS'rne'
p1208
(lp1209
g3
asS'ppre'
p1210
(lp1211
g9
asS'weep'
p1212
(lp1213
g6
asS'ppro'
p1214
(lp1215
g6
ag9
asS'tune'
p1216
(lp1217
g6
ag9
ag3
asS'kept'
p1218
(lp1219
g6
asS'unl'
p1220
(lp1221
g3
asS'thu'
p1222
(lp1223
g6
ag3
asS'ble'
p1224
(lp1225
g6
ag9
ag3
asS'well'
p1226
(lp1227
g6
ag9
ag3
asS'grossli'
p1228
(lp1229
g3
asS'thought'
p1230
(lp1231
g6
ag9
ag3
asS'thi'
p1232
(lp1233
g6
ag9
ag3
asS'choos'
p1234
(lp1235
g6
ag3
asS'y'
p1236
(lp1237
g6
ag9
ag3
asS'propos'
p1238
(lp1239
g6
asS'xed'
p1240
(lp1241
g6
asS'steeli'
p1242
(lp1243
g6
asS'just'
p1244
(lp1245
g6
asS'less'
p1246
(lp1247
g6
asS'nd'
p1248
(lp1249
g6
ag3
asS'rest'
p1250
(lp1251
g9
ag3
asS'pprove'
p1252
(lp1253
g9
ag3
asS'repent'
p1254
(lp1255
g3
asS'unth'
p1256
(lp1257
g6
asS'yer'
p1258
(lp1259
g6
asS'speed'
p1260
(lp1261
g3
asS'yet'
p1262
(lp1263
g6
ag9
ag3
asS'dost'
p1264
(lp1265
g3
asS'blow'
p1266
(lp1267
g6
asS'cur'
p1268
(lp1269
g9
asS'cup'
p1270
(lp1271
g6
asS'rose'
p1272
(lp1273
g3
asS'poy'
p1274
(lp1275
g3
asS'sky'
p1276
(lp1277
g6
asS'except'
p1278
(lp1279
g9
asS'eld'
p1280
(lp1281
g3
asS"god'"
p1282
(lp1283
g3
asS'mpl'
p1284
(lp1285
g3
asS'rge'
p1286
(lp1287
g3
asS'nten'
p1288
(lp1289
g3
asS"ture'"
p1290
(lp1291
g3
asS'els'
p1292
(lp1293
g6
ag3
asS'cul'
p1294
(lp1295
g6
asS'nted'
p1296
(lp1297
g6
asS"vouch'd"
p1298
(lp1299
g9
asS'preserv'
p1300
(lp1301
g6
asS'mor'
p1302
(lp1303
g9
asS'mou'
p1304
(lp1305
g6
ag3
asS'mot'
p1306
(lp1307
g3
asS"r'st"
p1308
(lp1309
g9
asS'test'
p1310
(lp1311
g3
asS'quest'
p1312
(lp1313
g6
asS'mon'
p1314
(lp1315
g6
asS'world'
p1316
(lp1317
g6
ag3
asS'mned'
p1318
(lp1319
g3
asS'bsent'
p1320
(lp1321
g3
asS'loss'
p1322
(lp1323
g6
ag3
asS'ns'
p1324
(lp1325
g6
ag9
ag3
asS'd'
p1326
(lp1327
g6
ag9
ag3
asS'lost'
p1328
(lp1329
g6
ag3
asS'fferenc'
p1330
(lp1331
g3
asS'corpor'
p1332
(lp1333
g9
asS'pol'
p1334
(lp1335
g6
asS'clown'
p1336
(lp1337
g3
asS'collect'
p1338
(lp1339
g3
asS't'
p1340
(lp1341
g6
ag9
ag3
asS'prejud'
p1342
(lp1343
g9
asS'lose'
p1344
(lp1345
g6
ag3
asS'hung'
p1346
(lp1347
g3
asS'ncre'
p1348
(lp1349
g6
asS'strop'
p1350
(lp1351
g9
asS'poor'
p1352
(lp1353
g6
ag9
ag3
asS'old'
p1354
(lp1355
g6
ag3
asS'nce'
p1356
(lp1357
g6
ag9
ag3
asS'born'
p1358
(lp1359
g6
ag3
asS'rtue'
p1360
(lp1361
g6
asS'husb'
p1362
(lp1363
g6
asS"on't"
p1364
(lp1365
g3
asS'ughter'
p1366
(lp1367
g6
ag3
asS'gross'
p1368
(lp1369
g3
asS'est'
p1370
(lp1371
g6
ag3
asS'ess'
p1372
(lp1373
g6
ag3
asS'enwom'
p1374
(lp1375
g3
asS"o'"
p1376
(lp1377
g3
asS'mplest'
p1378
(lp1379
g9
asS"'mo"
p1380
(lp1381
g3
asS'prop'
p1382
(lp1383
g3
asS'prom'
p1384
(lp1385
g6
asS'undon'
p1386
(lp1387
g6
asS'content'
p1388
(lp1389
g3
asS"ll'd"
p1390
(lp1391
g3
asS'chli'
p1392
(lp1393
g6
asS'knew'
p1394
(lp1395
g9
asS'power'
p1396
(lp1397
g6
asS'bl'
p1398
(lp1399
g6
ag3
asS'ffect'
p1400
(lp1401
g6
ag3
asS'bo'
p1402
(lp1403
g3
asS'buri'
p1404
(lp1405
g6
asS'use'
p1406
(lp1407
g6
ag9
ag3
asS'compo'
p1408
(lp1409
g6
asS'ster'
p1410
(lp1411
g6
ag3
asS'bu'
p1412
(lp1413
g6
ag9
ag3
asS'ple'
p1414
(lp1415
g9
ag3
asS'stew'
p1416
(lp1417
g3
asS'br'
p1418
(lp1419
g6
ag9
asS'from'
p1420
(lp1421
g6
ag9
ag3
asS'peev'
p1422
(lp1423
g6
asS'by'
p1424
(lp1425
g6
ag9
ag3
asS'pli'
p1426
(lp1427
g3
asS"'let"
p1428
(lp1429
g9
asS'on'
p1430
(lp1431
g6
ag9
ag3
asS'rthqu'
p1432
(lp1433
g3
asS'prove'
p1434
(lp1435
g3
asS'o'
p1436
(lp1437
g6
ag9
ag3
asS'mmort'
p1438
(lp1439
g6
asS'fterw'
p1440
(lp1441
g3
asS'ow'
p1442
(lp1443
g3
asS'greet'
p1444
(lp1445
g3
asS'ou'
p1446
(lp1447
g6
ag9
ag3
asS'luck'
p1448
(lp1449
g3
asS'or'
p1450
(lp1451
g9
ag3
asS'desper'
p1452
(lp1453
g6
ag3
asS'ppe'
p1454
(lp1455
g3
asS'dulcet'
p1456
(lp1457
g6
asS'swe'
p1458
(lp1459
g3
asS'ppl'
p1460
(lp1461
g9
asS'down'
p1462
(lp1463
g6
ag3
asS'lonel'
p1464
(lp1465
g3
asS'logu'
p1466
(lp1467
g3
asS'next'
p1468
(lp1469
g3
asS'nst'
p1470
(lp1471
g6
ag3
asS'mbr'
p1472
(lp1473
g6
ag9
ag3
asS'ghtli'
p1474
(lp1475
g3
asS'jowl'
p1476
(lp1477
g3
asS'lone'
p1478
(lp1479
g6
ag3
asS'long'
p1480
(lp1481
g9
ag3
asS'desert'
p1482
(lp1483
g3
asS'phoen'
p1484
(lp1485
g6
asS'reli'
p1486
(lp1487
g3
asS"er'"
p1488
(lp1489
g6
asS'rch'
p1490
(lp1491
g6
ag3
asS'low'
p1492
(lp1493
g9
asS'deserv'
p1494
(lp1495
g3
asS'bur'
p1496
(lp1497
g6
asS'ho'
p1498
(lp1499
g9
ag3
asS'true'
p1500
(lp1501
g9
ag3
asS'dull'
p1502
(lp1503
g6
asS'count'
p1504
(lp1505
g9
ag3
asS'pull'
p1506
(lp1507
g6
asS'counsel'
p1508
(lp1509
g6
asS"r't"
p1510
(lp1511
g3
asS'ke'
p1512
(lp1513
g6
ag9
ag3
asS'ut'
p1514
(lp1515
g9
asS'j'
p1516
(lp1517
g6
asS'up'
p1518
(lp1519
g6
asS'us'
p1520
(lp1521
g6
ag9
ag3
asS'un'
p1522
(lp1523
g9
ag3
asS'cqu'
p1524
(lp1525
g3
asS"oppress'd"
p1526
(lp1527
g3
asS'z'
p1528
(lp1529
g3
asS'puls'
p1530
(lp1531
g3
asS'gone'
p1532
(lp1533
g6
ag3
asS'nni'
p1534
(lp1535
g6
asS'dysh'
p1536
(lp1537
g3
asS'request'
p1538
(lp1539
g6
asS'deer'
p1540
(lp1541
g3
asS'gentlewom'
p1542
(lp1543
g6
ag3
asS'curd'
p1544
(lp1545
g3
asS'cure'
p1546
(lp1547
g3
asS'curl'
p1548
(lp1549
g6
asS'furn'
p1550
(lp1551
g6
asS'nh'
p1552
(lp1553
g6
asS'nner'
p1554
(lp1555
g6
asS'nk'
p1556
(lp1557
g6
ag9
ag3
asS"'ll"
p1558
(lp1559
g3
asS'nc'
p1560
(lp1561
g6
ag9
asS'excel'
p1562
(lp1563
g6
asS'ne'
p1564
(lp1565
g6
ag9
ag3
asS'nf'
p1566
(lp1567
g6
asS'ng'
p1568
(lp1569
g6
ag9
ag3
asS'ny'
p1570
(lp1571
g3
asS'gre'
p1572
(lp1573
g6
ag3
asS'wledg'
p1574
(lp1575
g6
asS'gro'
p1576
(lp1577
g3
asS'er'
p1578
(lp1579
g6
ag9
asS'nt'
p1580
(lp1581
g6
ag9
ag3
asS'roll'
p1582
(lp1583
g6
asS'lenc'
p1584
(lp1585
g6
asS'contend'
p1586
(lp1587
g6
asS"'t"
p1588
(lp1589
g6
ag9
ag3
asS"'s"
p1590
(lp1591
g6
ag3
asS'lend'
p1592
(lp1593
g9
ag3
asS'felt'
p1594
(lp1595
g6
asS"'twould"
p1596
(lp1597
g3
asS"'d"
p1598
(lp1599
g3
asS'ese'
p1600
(lp1601
g6
asS'encount'
p1602
(lp1603
g3
asS'fter'
p1604
(lp1605
g9
asS'humbl'
p1606
(lp1607
g6
ag9
ag3
asS"'h"
p1608
(lp1609
g6
asS'tter'
p1610
(lp1611
g6
ag9
ag3
asS'ge'
p1612
(lp1613
g6
ag9
ag3
asS'e'
p1614
(lp1615
g6
ag9
ag3
asS'longer'
p1616
(lp1617
g6
asS'ustr'
p1618
(lp1619
g9
asS'thorn'
p1620
(lp1621
g3
asS'rule'
p1622
(lp1623
g6
asS"n'"
p1624
(lp1625
g9
ag3
asS'goe'
p1626
(lp1627
g6
asS'god'
p1628
(lp1629
g6
ag3
asS'confess'
p1630
(lp1631
g3
asS'credenc'
p1632
(lp1633
g9
as.